target datalayout = "e-m:e-p270:32:32-p271:32:32-p272:64:64-i64:64-i128:128-f80:128-n8:16:32:64-S128"
target triple = "x86_64-pc-linux-gnu"

@.str = private unnamed_addr constant [68 x i8] c"../openssl/providers/implementations/encode_decode/encode_key2any.c\00", align 1
@.str.17 = private unnamed_addr constant [15 x i8] c"DH PRIVATE KEY\00", align 1
@__func__.dh_to_PrivateKeyInfo_pem_encode = private unnamed_addr constant [32 x i8] c"dh_to_PrivateKeyInfo_pem_encode\00", align 1

; Function Attrs: nounwind uwtable
define internal i32 @dh_to_PrivateKeyInfo_pem_encode(ptr noundef %0, ptr noundef %1, ptr noundef %2, ptr noundef %3, i32 noundef %4, ptr noundef %5, ptr noundef %6) #0 {
  %8 = alloca i32, align 4
  %9 = alloca ptr, align 8
  %10 = alloca ptr, align 8
  %11 = alloca ptr, align 8
  %12 = alloca ptr, align 8
  %13 = alloca i32, align 4
  %14 = alloca ptr, align 8
  %15 = alloca ptr, align 8
  store ptr %0, ptr %9, align 8, !tbaa !3
  store ptr %1, ptr %10, align 8, !tbaa !26
  store ptr %2, ptr %11, align 8, !tbaa !3
  store ptr %3, ptr %12, align 8, !tbaa !19
  store i32 %4, ptr %13, align 4, !tbaa !25
  store ptr %5, ptr %14, align 8, !tbaa !3
  store ptr %6, ptr %15, align 8, !tbaa !3
  %16 = load ptr, ptr %12, align 8, !tbaa !19
  %17 = icmp ne ptr %16, null
  br i1 %17, label %18, label %19

18:                                               ; preds = %7
  call void @ERR_new()
  call void @ERR_set_debug(ptr noundef @.str, i32 noundef 1453, ptr noundef @__func__.dh_to_PrivateKeyInfo_pem_encode)
  call void (i32, i32, ptr, ...) @ERR_set_error(i32 noundef 57, i32 noundef 524550, ptr noundef null)
  store i32 0, ptr %8, align 4
  br label %31

19:                                               ; preds = %7
  %20 = load i32, ptr %13, align 4, !tbaa !25
  %21 = and i32 %20, 1
  %22 = icmp ne i32 %21, 0
  br i1 %22, label %23, label %30

23:                                               ; preds = %19
  %24 = load ptr, ptr %9, align 8, !tbaa !3
  %25 = load ptr, ptr %10, align 8, !tbaa !26
  %26 = load ptr, ptr %11, align 8, !tbaa !3
  %27 = load ptr, ptr %14, align 8, !tbaa !3
  %28 = load ptr, ptr %15, align 8, !tbaa !3
  %29 = call i32 @key2any_encode(ptr noundef %24, ptr noundef %25, ptr noundef %26, i32 noundef 28, ptr noundef @.str.17, ptr noundef @dh_check_key_type, ptr noundef @key_to_pki_pem_priv_bio, ptr noundef %27, ptr noundef %28, ptr noundef @prepare_dh_params, ptr noundef @dh_pki_priv_to_der)
  store i32 %29, ptr %8, align 4
  br label %31

30:                                               ; preds = %19
  call void @ERR_new()
  call void @ERR_set_debug(ptr noundef @.str, i32 noundef 1453, ptr noundef @__func__.dh_to_PrivateKeyInfo_pem_encode)
  call void (i32, i32, ptr, ...) @ERR_set_error(i32 noundef 57, i32 noundef 524550, ptr noundef null)
  store i32 0, ptr %8, align 4
  br label %31

31:                                               ; preds = %30, %23, %18
  %32 = load i32, ptr %8, align 4
  ret i32 %32
}